target datalayout = "e-m:e-p270:32:32-p271:32:32-p272:64:64-i64:64-i128:128-f80:128-n8:16:32:64-S128"
target triple = "x86_64-unknown-linux-gnu"

%"struct.msdfgen::Vector2" = type { double, double }
%"class.msdfgen::EdgeSegment.base" = type <{ ptr, i32 }>
%"class.msdfgen::CubicSegment" = type { %"class.msdfgen::EdgeSegment.base", [4 x %"struct.msdfgen::Vector2"] }

; Function Attrs: mustprogress nounwind uwtable
define linkonce_odr dso_local void @_ZN7msdfgen7Vector2C2Edd(ptr noundef nonnull align 8 dereferenceable(16) %this, double noundef %x, double noundef %y) unnamed_addr #4 comdat align 2 {
entry:
  %this.addr = alloca ptr, align 8
  %x.addr = alloca double, align 8
  %y.addr = alloca double, align 8
  store ptr %this, ptr %this.addr, align 8
  store double %x, ptr %x.addr, align 8
  store double %y, ptr %y.addr, align 8
  %this1 = load ptr, ptr %this.addr, align 8
  %x2 = getelementptr inbounds %"struct.msdfgen::Vector2", ptr %this1, i32 0, i32 0
  %0 = load double, ptr %x.addr, align 8
  store double %0, ptr %x2, align 8
  %y3 = getelementptr inbounds %"struct.msdfgen::Vector2", ptr %this1, i32 0, i32 1
  %1 = load double, ptr %y.addr, align 8
  store double %1, ptr %y3, align 8
  ret void
}

; Function Attrs: mustprogress uwtable
define linkonce_odr dso_local { double, double } @_ZN7msdfgenplENS_7Vector2ES0_(double %a.coerce0, double %a.coerce1, double %b.coerce0, double %b.coerce1) #0 comdat {
entry:
  %retval = alloca %"struct.msdfgen::Vector2", align 8
  %a = alloca %"struct.msdfgen::Vector2", align 8
  %b = alloca %"struct.msdfgen::Vector2", align 8
  %0 = getelementptr inbounds { double, double }, ptr %a, i32 0, i32 0
  store double %a.coerce0, ptr %0, align 8
  %1 = getelementptr inbounds { double, double }, ptr %a, i32 0, i32 1
  store double %a.coerce1, ptr %1, align 8
  %2 = getelementptr inbounds { double, double }, ptr %b, i32 0, i32 0
  store double %b.coerce0, ptr %2, align 8
  %3 = getelementptr inbounds { double, double }, ptr %b, i32 0, i32 1
  store double %b.coerce1, ptr %3, align 8
  %x = getelementptr inbounds %"struct.msdfgen::Vector2", ptr %a, i32 0, i32 0
  %4 = load double, ptr %x, align 8
  %x1 = getelementptr inbounds %"struct.msdfgen::Vector2", ptr %b, i32 0, i32 0
  %5 = load double, ptr %x1, align 8
  %add = fadd double %4, %5
  %y = getelementptr inbounds %"struct.msdfgen::Vector2", ptr %a, i32 0, i32 1
  %6 = load double, ptr %y, align 8
  %y2 = getelementptr inbounds %"struct.msdfgen::Vector2", ptr %b, i32 0, i32 1
  %7 = load double, ptr %y2, align 8
  %add3 = fadd double %6, %7
  call void @_ZN7msdfgen7Vector2C2Edd(ptr noundef nonnull align 8 dereferenceable(16) %retval, double noundef %add, double noundef %add3)
  %8 = load { double, double }, ptr %retval, align 8
  ret { double, double } %8
}

; Function Attrs: mustprogress uwtable
define linkonce_odr dso_local { double, double } @_ZN7msdfgenmlEdNS_7Vector2E(double noundef %a, double %b.coerce0, double %b.coerce1) #0 comdat {
entry:
  %retval = alloca %"struct.msdfgen::Vector2", align 8
  %b = alloca %"struct.msdfgen::Vector2", align 8
  %a.addr = alloca double, align 8
  %0 = getelementptr inbounds { double, double }, ptr %b, i32 0, i32 0
  store double %b.coerce0, ptr %0, align 8
  %1 = getelementptr inbounds { double, double }, ptr %b, i32 0, i32 1
  store double %b.coerce1, ptr %1, align 8
  store double %a, ptr %a.addr, align 8
  %2 = load double, ptr %a.addr, align 8
  %x = getelementptr inbounds %"struct.msdfgen::Vector2", ptr %b, i32 0, i32 0
  %3 = load double, ptr %x, align 8
  %mul = fmul double %2, %3
  %4 = load double, ptr %a.addr, align 8
  %y = getelementptr inbounds %"struct.msdfgen::Vector2", ptr %b, i32 0, i32 1
  %5 = load double, ptr %y, align 8
  %mul1 = fmul double %4, %5
  call void @_ZN7msdfgen7Vector2C2Edd(ptr noundef nonnull align 8 dereferenceable(16) %retval, double noundef %mul, double noundef %mul1)
  %6 = load { double, double }, ptr %retval, align 8
  ret { double, double } %6
}

; Function Attrs: mustprogress uwtable
define linkonce_odr dso_local { double, double } @_ZN7msdfgen3mixINS_7Vector2EdEET_S2_S2_T0_(double %a.coerce0, double %a.coerce1, double %b.coerce0, double %b.coerce1, double noundef %weight) #0 comdat {
entry:
  %retval = alloca %"struct.msdfgen::Vector2", align 8
  %a = alloca %"struct.msdfgen::Vector2", align 8
  %b = alloca %"struct.msdfgen::Vector2", align 8
  %weight.addr = alloca double, align 8
  %agg.tmp = alloca %"struct.msdfgen::Vector2", align 8
  %agg.tmp1 = alloca %"struct.msdfgen::Vector2", align 8
  %agg.tmp2 = alloca %"struct.msdfgen::Vector2", align 8
  %agg.tmp3 = alloca %"struct.msdfgen::Vector2", align 8
  %0 = getelementptr inbounds { double, double }, ptr %a, i32 0, i32 0
  store double %a.coerce0, ptr %0, align 8
  %1 = getelementptr inbounds { double, double }, ptr %a, i32 0, i32 1
  store double %a.coerce1, ptr %1, align 8
  %2 = getelementptr inbounds { double, double }, ptr %b, i32 0, i32 0
  store double %b.coerce0, ptr %2, align 8
  %3 = getelementptr inbounds { double, double }, ptr %b, i32 0, i32 1
  store double %b.coerce1, ptr %3, align 8
  store double %weight, ptr %weight.addr, align 8
  %4 = load double, ptr %weight.addr, align 8
  %sub = fsub double 1.000000e+00, %4
  call void @llvm.memcpy.p0.p0.i64(ptr align 8 %agg.tmp1, ptr align 8 %a, i64 16, i1 false)
  %5 = getelementptr inbounds { double, double }, ptr %agg.tmp1, i32 0, i32 0
  %6 = load double, ptr %5, align 8
  %7 = getelementptr inbounds { double, double }, ptr %agg.tmp1, i32 0, i32 1
  %8 = load double, ptr %7, align 8
  %call = call { double, double } @_ZN7msdfgenmlEdNS_7Vector2E(double noundef %sub, double %6, double %8)
  %9 = getelementptr inbounds { double, double }, ptr %agg.tmp, i32 0, i32 0
  %10 = extractvalue { double, double } %call, 0
  store double %10, ptr %9, align 8
  %11 = getelementptr inbounds { double, double }, ptr %agg.tmp, i32 0, i32 1
  %12 = extractvalue { double, double } %call, 1
  store double %12, ptr %11, align 8
  %13 = load double, ptr %weight.addr, align 8
  call void @llvm.memcpy.p0.p0.i64(ptr align 8 %agg.tmp3, ptr align 8 %b, i64 16, i1 false)
  %14 = getelementptr inbounds { double, double }, ptr %agg.tmp3, i32 0, i32 0
  %15 = load double, ptr %14, align 8
  %16 = getelementptr inbounds { double, double }, ptr %agg.tmp3, i32 0, i32 1
  %17 = load double, ptr %16, align 8
  %call4 = call { double, double } @_ZN7msdfgenmlEdNS_7Vector2E(double noundef %13, double %15, double %17)
  %18 = getelementptr inbounds { double, double }, ptr %agg.tmp2, i32 0, i32 0
  %19 = extractvalue { double, double } %call4, 0
  store double %19, ptr %18, align 8
  %20 = getelementptr inbounds { double, double }, ptr %agg.tmp2, i32 0, i32 1
  %21 = extractvalue { double, double } %call4, 1
  store double %21, ptr %20, align 8
  %22 = getelementptr inbounds { double, double }, ptr %agg.tmp, i32 0, i32 0
  %23 = load double, ptr %22, align 8
  %24 = getelementptr inbounds { double, double }, ptr %agg.tmp, i32 0, i32 1
  %25 = load double, ptr %24, align 8
  %26 = getelementptr inbounds { double, double }, ptr %agg.tmp2, i32 0, i32 0
  %27 = load double, ptr %26, align 8
  %28 = getelementptr inbounds { double, double }, ptr %agg.tmp2, i32 0, i32 1
  %29 = load double, ptr %28, align 8
  %call5 = call { double, double } @_ZN7msdfgenplENS_7Vector2ES0_(double %23, double %25, double %27, double %29)
  %30 = getelementptr inbounds { double, double }, ptr %retval, i32 0, i32 0
  %31 = extractvalue { double, double } %call5, 0
  store double %31, ptr %30, align 8
  %32 = getelementptr inbounds { double, double }, ptr %retval, i32 0, i32 1
  %33 = extractvalue { double, double } %call5, 1
  store double %33, ptr %32, align 8
  %34 = load { double, double }, ptr %retval, align 8
  ret { double, double } %34
}

; Function Attrs: mustprogress uwtable
define dso_local { double, double } @_ZNK7msdfgen12CubicSegment5pointEd(ptr noundef nonnull align 8 dereferenceable(80) %this, double noundef %param) unnamed_addr #0 align 2 {
entry:
  %retval = alloca %"struct.msdfgen::Vector2", align 8
  %this.addr = alloca ptr, align 8
  %param.addr = alloca double, align 8
  %p12 = alloca %"struct.msdfgen::Vector2", align 8
  %agg.tmp = alloca %"struct.msdfgen::Vector2", align 8
  %agg.tmp2 = alloca %"struct.msdfgen::Vector2", align 8
  %agg.tmp5 = alloca %"struct.msdfgen::Vector2", align 8
  %agg.tmp6 = alloca %"struct.msdfgen::Vector2", align 8
  %agg.tmp7 = alloca %"struct.msdfgen::Vector2", align 8
  %agg.tmp10 = alloca %"struct.msdfgen::Vector2", align 8
  %agg.tmp14 = alloca %"struct.msdfgen::Vector2", align 8
  %agg.tmp16 = alloca %"struct.msdfgen::Vector2", align 8
  %agg.tmp17 = alloca %"struct.msdfgen::Vector2", align 8
  %agg.tmp18 = alloca %"struct.msdfgen::Vector2", align 8
  %agg.tmp19 = alloca %"struct.msdfgen::Vector2", align 8
  %agg.tmp22 = alloca %"struct.msdfgen::Vector2", align 8
  store ptr %this, ptr %this.addr, align 8
  store double %param, ptr %param.addr, align 8
  %this1 = load ptr, ptr %this.addr, align 8
  %p = getelementptr inbounds %"class.msdfgen::CubicSegment", ptr %this1, i32 0, i32 1
  %arrayidx = getelementptr inbounds [4 x %"struct.msdfgen::Vector2"], ptr %p, i64 0, i64 1
  call void @llvm.memcpy.p0.p0.i64(ptr align 8 %agg.tmp, ptr align 8 %arrayidx, i64 16, i1 false)
  %p3 = getelementptr inbounds %"class.msdfgen::CubicSegment", ptr %this1, i32 0, i32 1
  %arrayidx4 = getelementptr inbounds [4 x %"struct.msdfgen::Vector2"], ptr %p3, i64 0, i64 2
  call void @llvm.memcpy.p0.p0.i64(ptr align 8 %agg.tmp2, ptr align 8 %arrayidx4, i64 16, i1 false)
  %0 = load double, ptr %param.addr, align 8
  %1 = getelementptr inbounds { double, double }, ptr %agg.tmp, i32 0, i32 0
  %2 = load double, ptr %1, align 8
  %3 = getelementptr inbounds { double, double }, ptr %agg.tmp, i32 0, i32 1
  %4 = load double, ptr %3, align 8
  %5 = getelementptr inbounds { double, double }, ptr %agg.tmp2, i32 0, i32 0
  %6 = load double, ptr %5, align 8
  %7 = getelementptr inbounds { double, double }, ptr %agg.tmp2, i32 0, i32 1
  %8 = load double, ptr %7, align 8
  %call = call { double, double } @_ZN7msdfgen3mixINS_7Vector2EdEET_S2_S2_T0_(double %2, double %4, double %6, double %8, double noundef %0)
  %9 = getelementptr inbounds { double, double }, ptr %p12, i32 0, i32 0
  %10 = extractvalue { double, double } %call, 0
  store double %10, ptr %9, align 8
  %11 = getelementptr inbounds { double, double }, ptr %p12, i32 0, i32 1
  %12 = extractvalue { double, double } %call, 1
  store double %12, ptr %11, align 8
  %p8 = getelementptr inbounds %"class.msdfgen::CubicSegment", ptr %this1, i32 0, i32 1
  %arrayidx9 = getelementptr inbounds [4 x %"struct.msdfgen::Vector2"], ptr %p8, i64 0, i64 0
  call void @llvm.memcpy.p0.p0.i64(ptr align 8 %agg.tmp7, ptr align 8 %arrayidx9, i64 16, i1 false)
  %p11 = getelementptr inbounds %"class.msdfgen::CubicSegment", ptr %this1, i32 0, i32 1
  %arrayidx12 = getelementptr inbounds [4 x %"struct.msdfgen::Vector2"], ptr %p11, i64 0, i64 1
  call void @llvm.memcpy.p0.p0.i64(ptr align 8 %agg.tmp10, ptr align 8 %arrayidx12, i64 16, i1 false)
  %13 = load double, ptr %param.addr, align 8
  %14 = getelementptr inbounds { double, double }, ptr %agg.tmp7, i32 0, i32 0
  %15 = load double, ptr %14, align 8
  %16 = getelementptr inbounds { double, double }, ptr %agg.tmp7, i32 0, i32 1
  %17 = load double, ptr %16, align 8
  %18 = getelementptr inbounds { double, double }, ptr %agg.tmp10, i32 0, i32 0
  %19 = load double, ptr %18, align 8
  %20 = getelementptr inbounds { double, double }, ptr %agg.tmp10, i32 0, i32 1
  %21 = load double, ptr %20, align 8
  %call13 = call { double, double } @_ZN7msdfgen3mixINS_7Vector2EdEET_S2_S2_T0_(double %15, double %17, double %19, double %21, double noundef %13)
  %22 = getelementptr inbounds { double, double }, ptr %agg.tmp6, i32 0, i32 0
  %23 = extractvalue { double, double } %call13, 0
  store double %23, ptr %22, align 8
  %24 = getelementptr inbounds { double, double }, ptr %agg.tmp6, i32 0, i32 1
  %25 = extractvalue { double, double } %call13, 1
  store double %25, ptr %24, align 8
  call void @llvm.memcpy.p0.p0.i64(ptr align 8 %agg.tmp14, ptr align 8 %p12, i64 16, i1 false)
  %26 = load double, ptr %param.addr, align 8
  %27 = getelementptr inbounds { double, double }, ptr %agg.tmp6, i32 0, i32 0
  %28 = load double, ptr %27, align 8
  %29 = getelementptr inbounds { double, double }, ptr %agg.tmp6, i32 0, i32 1
  %30 = load double, ptr %29, align 8
  %31 = getelementptr inbounds { double, double }, ptr %agg.tmp14, i32 0, i32 0
  %32 = load double, ptr %31, align 8
  %33 = getelementptr inbounds { double, double }, ptr %agg.tmp14, i32 0, i32 1
  %34 = load double, ptr %33, align 8
  %call15 = call { double, double } @_ZN7msdfgen3mixINS_7Vector2EdEET_S2_S2_T0_(double %28, double %30, double %32, double %34, double noundef %26)
  %35 = getelementptr inbounds { double, double }, ptr %agg.tmp5, i32 0, i32 0
  %36 = extractvalue { double, double } %call15, 0
  store double %36, ptr %35, align 8
  %37 = getelementptr inbounds { double, double }, ptr %agg.tmp5, i32 0, i32 1
  %38 = extractvalue { double, double } %call15, 1
  store double %38, ptr %37, align 8
  call void @llvm.memcpy.p0.p0.i64(ptr align 8 %agg.tmp17, ptr align 8 %p12, i64 16, i1 false)
  %p20 = getelementptr inbounds %"class.msdfgen::CubicSegment", ptr %this1, i32 0, i32 1
  %arrayidx21 = getelementptr inbounds [4 x %"struct.msdfgen::Vector2"], ptr %p20, i64 0, i64 2
  call void @llvm.memcpy.p0.p0.i64(ptr align 8 %agg.tmp19, ptr align 8 %arrayidx21, i64 16, i1 false)
  %p23 = getelementptr inbounds %"class.msdfgen::CubicSegment", ptr %this1, i32 0, i32 1
  %arrayidx24 = getelementptr inbounds [4 x %"struct.msdfgen::Vector2"], ptr %p23, i64 0, i64 3
  call void @llvm.memcpy.p0.p0.i64(ptr align 8 %agg.tmp22, ptr align 8 %arrayidx24, i64 16, i1 false)
  %39 = load double, ptr %param.addr, align 8
  %40 = getelementptr inbounds { double, double }, ptr %agg.tmp19, i32 0, i32 0
  %41 = load double, ptr %40, align 8
  %42 = getelementptr inbounds { double, double }, ptr %agg.tmp19, i32 0, i32 1
  %43 = load double, ptr %42, align 8
  %44 = getelementptr inbounds { double, double }, ptr %agg.tmp22, i32 0, i32 0
  %45 = load double, ptr %44, align 8
  %46 = getelementptr inbounds { double, double }, ptr %agg.tmp22, i32 0, i32 1
  %47 = load double, ptr %46, align 8
  %call25 = call { double, double } @_ZN7msdfgen3mixINS_7Vector2EdEET_S2_S2_T0_(double %41, double %43, double %45, double %47, double noundef %39)
  %48 = getelementptr inbounds { double, double }, ptr %agg.tmp18, i32 0, i32 0
  %49 = extractvalue { double, double } %call25, 0
  store double %49, ptr %48, align 8
  %50 = getelementptr inbounds { double, double }, ptr %agg.tmp18, i32 0, i32 1
  %51 = extractvalue { double, double } %call25, 1
  store double %51, ptr %50, align 8
  %52 = load double, ptr %param.addr, align 8
  %53 = getelementptr inbounds { double, double }, ptr %agg.tmp17, i32 0, i32 0
  %54 = load double, ptr %53, align 8
  %55 = getelementptr inbounds { double, double }, ptr %agg.tmp17, i32 0, i32 1
  %56 = load double, ptr %55, align 8
  %57 = getelementptr inbounds { double, double }, ptr %agg.tmp18, i32 0, i32 0
  %58 = load double, ptr %57, align 8
  %59 = getelementptr inbounds { double, double }, ptr %agg.tmp18, i32 0, i32 1
  %60 = load double, ptr %59, align 8
  %call26 = call { double, double } @_ZN7msdfgen3mixINS_7Vector2EdEET_S2_S2_T0_(double %54, double %56, double %58, double %60, double noundef %52)
  %61 = getelementptr inbounds { double, double }, ptr %agg.tmp16, i32 0, i32 0
  %62 = extractvalue { double, double } %call26, 0
  store double %62, ptr %61, align 8
  %63 = getelementptr inbounds { double, double }, ptr %agg.tmp16, i32 0, i32 1
  %64 = extractvalue { double, double } %call26, 1
  store double %64, ptr %63, align 8
  %65 = load double, ptr %param.addr, align 8
  %66 = getelementptr inbounds { double, double }, ptr %agg.tmp5, i32 0, i32 0
  %67 = load double, ptr %66, align 8
  %68 = getelementptr inbounds { double, double }, ptr %agg.tmp5, i32 0, i32 1
  %69 = load double, ptr %68, align 8
  %70 = getelementptr inbounds { double, double }, ptr %agg.tmp16, i32 0, i32 0
  %71 = load double, ptr %70, align 8
  %72 = getelementptr inbounds { double, double }, ptr %agg.tmp16, i32 0, i32 1
  %73 = load double, ptr %72, align 8
  %call27 = call { double, double } @_ZN7msdfgen3mixINS_7Vector2EdEET_S2_S2_T0_(double %67, double %69, double %71, double %73, double noundef %65)
  %74 = getelementptr inbounds { double, double }, ptr %retval, i32 0, i32 0
  %75 = extractvalue { double, double } %call27, 0
  store double %75, ptr %74, align 8
  %76 = getelementptr inbounds { double, double }, ptr %retval, i32 0, i32 1
  %77 = extractvalue { double, double } %call27, 1
  store double %77, ptr %76, align 8
  %78 = load { double, double }, ptr %retval, align 8
  ret { double, double } %78
}