; Function Attrs: mustprogress nofree norecurse nosync nounwind willreturn memory(argmem: read) uwtable
define dso_local { double, double } @_ZNK7msdfgen12CubicSegment5pointEd(ptr nocapture noundef nonnull readonly align 8 dereferenceable(80) %this, double noundef %param) unnamed_addr #7 align 2 {
entry:
  %p = getelementptr inbounds i8, ptr %this, i64 16
  %arrayidx = getelementptr inbounds i8, ptr %this, i64 32
  %arrayidx4 = getelementptr inbounds i8, ptr %this, i64 48
  %sub.i = fsub double 1.000000e+00, %param
  %arrayidx24 = getelementptr inbounds i8, ptr %this, i64 64
  %0 = load <2 x double>, ptr %arrayidx, align 8
  %1 = load <2 x double>, ptr %arrayidx4, align 8
  %2 = insertelement <2 x double> poison, double %sub.i, i64 0
  %3 = shufflevector <2 x double> %2, <2 x double> poison, <2 x i32> zeroinitializer
  %4 = fmul <2 x double> %3, %0
  %5 = insertelement <2 x double> poison, double %param, i64 0
  %6 = shufflevector <2 x double> %5, <2 x double> poison, <2 x i32> zeroinitializer
  %7 = fmul <2 x double> %1, %6
  %8 = fadd <2 x double> %4, %7
  %9 = load <2 x double>, ptr %p, align 8
  %10 = fmul <2 x double> %3, %9
  %11 = fmul <2 x double> %0, %6
  %12 = fadd <2 x double> %11, %10
  %13 = fmul <2 x double> %3, %12
  %14 = fmul <2 x double> %8, %6
  %15 = fadd <2 x double> %14, %13
  %16 = load <2 x double>, ptr %arrayidx24, align 8
  %17 = fmul <2 x double> %3, %1
  %18 = fmul <2 x double> %16, %6
  %19 = fadd <2 x double> %17, %18
  %20 = fmul <2 x double> %3, %8
  %21 = fmul <2 x double> %19, %6
  %22 = fadd <2 x double> %20, %21
  %23 = fmul <2 x double> %3, %15
  %24 = fmul <2 x double> %22, %6
  %25 = fadd <2 x double> %23, %24
  %26 = extractelement <2 x double> %25, i64 0
  %.fca.0.insert.i6.i49 = insertvalue { double, double } poison, double %26, 0
  %27 = extractelement <2 x double> %25, i64 1
  %.fca.1.insert.i7.i50 = insertvalue { double, double } %.fca.0.insert.i6.i49, double %27, 1
  ret { double, double } %.fca.1.insert.i7.i50
}